target datalayout = "e-m:e-p270:32:32-p271:32:32-p272:64:64-i64:64-i128:128-f80:128-n8:16:32:64-S128"
target triple = "x86_64-pc-linux-gnu"

%struct.AVDOVIDecoderConfigurationRecord = type { i8, i8, i8, i8, i8, i8, i8, i8, i8 }
%struct.PutBitContext = type { i32, i32, ptr, ptr, ptr }

@.str.1 = private unnamed_addr constant [135 x i8] c"DOVI in %s box, version: %d.%d, profile: %d, level: %d, rpu flag: %d, el flag: %d, bl flag: %d, compatibility id: %d, compression: %d\0A\00", align 1
@.str.2 = private unnamed_addr constant [5 x i8] c"dvwC\00", align 1
@.str.3 = private unnamed_addr constant [5 x i8] c"dvvC\00", align 1
@.str.4 = private unnamed_addr constant [5 x i8] c"dvcC\00", align 1
@.str.5 = private unnamed_addr constant [43 x i8] c"Internal error, put_bits buffer too small\0A\00", align 1
@.str.6 = private unnamed_addr constant [30 x i8] c"Assertion %s failed at %s:%d\0A\00", align 1
@.str.7 = private unnamed_addr constant [24 x i8] c"s->buf_ptr < s->buf_end\00", align 1
@.str.8 = private unnamed_addr constant [24 x i8] c"./libavcodec/put_bits.h\00", align 1

; Function Attrs: alwaysinline nounwind willreturn memory(none) uwtable
define internal i32 @av_bswap32(i32 noundef %0) #4 {
  %2 = alloca i32, align 4
  store i32 %0, ptr %2, align 4, !tbaa !20
  %3 = load i32, ptr %2, align 4, !tbaa !20
  %4 = shl i32 %3, 8
  %5 = and i32 %4, 65280
  %6 = load i32, ptr %2, align 4, !tbaa !20
  %7 = lshr i32 %6, 8
  %8 = and i32 %7, 255
  %9 = or i32 %5, %8
  %10 = shl i32 %9, 16
  %11 = load i32, ptr %2, align 4, !tbaa !20
  %12 = lshr i32 %11, 16
  %13 = shl i32 %12, 8
  %14 = and i32 %13, 65280
  %15 = load i32, ptr %2, align 4, !tbaa !20
  %16 = lshr i32 %15, 16
  %17 = lshr i32 %16, 8
  %18 = and i32 %17, 255
  %19 = or i32 %14, %18
  %20 = or i32 %10, %19
  ret i32 %20
}

; Function Attrs: inlinehint nounwind uwtable
define internal void @put_bits_no_assert(ptr noundef %0, i32 noundef %1, i32 noundef %2) #3 {
  %4 = alloca ptr, align 8
  %5 = alloca i32, align 4
  %6 = alloca i32, align 4
  %7 = alloca i32, align 4
  %8 = alloca i32, align 4
  store ptr %0, ptr %4, align 8, !tbaa !38
  store i32 %1, ptr %5, align 4, !tbaa !20
  store i32 %2, ptr %6, align 4, !tbaa !20
  call void @llvm.lifetime.start.p0(i64 4, ptr %7) #6
  call void @llvm.lifetime.start.p0(i64 4, ptr %8) #6
  %9 = load ptr, ptr %4, align 8, !tbaa !38
  %10 = getelementptr inbounds nuw %struct.PutBitContext, ptr %9, i32 0, i32 0
  %11 = load i32, ptr %10, align 8, !tbaa !45
  store i32 %11, ptr %7, align 4, !tbaa !20
  %12 = load ptr, ptr %4, align 8, !tbaa !38
  %13 = getelementptr inbounds nuw %struct.PutBitContext, ptr %12, i32 0, i32 1
  %14 = load i32, ptr %13, align 4, !tbaa !44
  store i32 %14, ptr %8, align 4, !tbaa !20
  %15 = load i32, ptr %5, align 4, !tbaa !20
  %16 = load i32, ptr %8, align 4, !tbaa !20
  %17 = icmp slt i32 %15, %16
  br i1 %17, label %18, label %27

18:                                               ; preds = %3
  %19 = load i32, ptr %7, align 4, !tbaa !20
  %20 = load i32, ptr %5, align 4, !tbaa !20
  %21 = shl i32 %19, %20
  %22 = load i32, ptr %6, align 4, !tbaa !20
  %23 = or i32 %21, %22
  store i32 %23, ptr %7, align 4, !tbaa !20
  %24 = load i32, ptr %5, align 4, !tbaa !20
  %25 = load i32, ptr %8, align 4, !tbaa !20
  %26 = sub nsw i32 %25, %24
  store i32 %26, ptr %8, align 4, !tbaa !20
  br label %65

27:                                               ; preds = %3
  %28 = load i32, ptr %8, align 4, !tbaa !20
  %29 = load i32, ptr %7, align 4, !tbaa !20
  %30 = shl i32 %29, %28
  store i32 %30, ptr %7, align 4, !tbaa !20
  %31 = load i32, ptr %6, align 4, !tbaa !20
  %32 = load i32, ptr %5, align 4, !tbaa !20
  %33 = load i32, ptr %8, align 4, !tbaa !20
  %34 = sub nsw i32 %32, %33
  %35 = lshr i32 %31, %34
  %36 = load i32, ptr %7, align 4, !tbaa !20
  %37 = or i32 %36, %35
  store i32 %37, ptr %7, align 4, !tbaa !20
  %38 = load ptr, ptr %4, align 8, !tbaa !38
  %39 = getelementptr inbounds nuw %struct.PutBitContext, ptr %38, i32 0, i32 4
  %40 = load ptr, ptr %39, align 8, !tbaa !42
  %41 = load ptr, ptr %4, align 8, !tbaa !38
  %42 = getelementptr inbounds nuw %struct.PutBitContext, ptr %41, i32 0, i32 3
  %43 = load ptr, ptr %42, align 8, !tbaa !43
  %44 = ptrtoint ptr %40 to i64
  %45 = ptrtoint ptr %43 to i64
  %46 = sub i64 %44, %45
  %47 = icmp uge i64 %46, 4
  br i1 %47, label %48, label %58

48:                                               ; preds = %27
  %49 = load i32, ptr %7, align 4, !tbaa !20
  %50 = call i32 @av_bswap32(i32 noundef %49) #7
  %51 = load ptr, ptr %4, align 8, !tbaa !38
  %52 = getelementptr inbounds nuw %struct.PutBitContext, ptr %51, i32 0, i32 3
  %53 = load ptr, ptr %52, align 8, !tbaa !43
  store i32 %50, ptr %53, align 1, !tbaa !16
  %54 = load ptr, ptr %4, align 8, !tbaa !38
  %55 = getelementptr inbounds nuw %struct.PutBitContext, ptr %54, i32 0, i32 3
  %56 = load ptr, ptr %55, align 8, !tbaa !43
  %57 = getelementptr inbounds nuw i8, ptr %56, i64 4
  store ptr %57, ptr %55, align 8, !tbaa !43
  br label %59

58:                                               ; preds = %27
  call void (ptr, i32, ptr, ...) @av_log(ptr noundef null, i32 noundef 16, ptr noundef @.str.5)
  br label %59

59:                                               ; preds = %58, %48
  %60 = load i32, ptr %5, align 4, !tbaa !20
  %61 = sub nsw i32 32, %60
  %62 = load i32, ptr %8, align 4, !tbaa !20
  %63 = add nsw i32 %62, %61
  store i32 %63, ptr %8, align 4, !tbaa !20
  %64 = load i32, ptr %6, align 4, !tbaa !20
  store i32 %64, ptr %7, align 4, !tbaa !20
  br label %65

65:                                               ; preds = %59, %18
  %66 = load i32, ptr %7, align 4, !tbaa !20
  %67 = load ptr, ptr %4, align 8, !tbaa !38
  %68 = getelementptr inbounds nuw %struct.PutBitContext, ptr %67, i32 0, i32 0
  store i32 %66, ptr %68, align 8, !tbaa !45
  %69 = load i32, ptr %8, align 4, !tbaa !20
  %70 = load ptr, ptr %4, align 8, !tbaa !38
  %71 = getelementptr inbounds nuw %struct.PutBitContext, ptr %70, i32 0, i32 1
  store i32 %69, ptr %71, align 4, !tbaa !44
  call void @llvm.lifetime.end.p0(i64 4, ptr %8) #6
  call void @llvm.lifetime.end.p0(i64 4, ptr %7) #6
  ret void
}

; Function Attrs: inlinehint nounwind uwtable
define internal void @flush_put_bits(ptr noundef %0) #3 {
  %2 = alloca ptr, align 8
  store ptr %0, ptr %2, align 8, !tbaa !38
  %3 = load ptr, ptr %2, align 8, !tbaa !38
  %4 = getelementptr inbounds nuw %struct.PutBitContext, ptr %3, i32 0, i32 1
  %5 = load i32, ptr %4, align 4, !tbaa !44
  %6 = icmp slt i32 %5, 32
  br i1 %6, label %7, label %15

7:                                                ; preds = %1
  %8 = load ptr, ptr %2, align 8, !tbaa !38
  %9 = getelementptr inbounds nuw %struct.PutBitContext, ptr %8, i32 0, i32 1
  %10 = load i32, ptr %9, align 4, !tbaa !44
  %11 = load ptr, ptr %2, align 8, !tbaa !38
  %12 = getelementptr inbounds nuw %struct.PutBitContext, ptr %11, i32 0, i32 0
  %13 = load i32, ptr %12, align 8, !tbaa !45
  %14 = shl i32 %13, %10
  store i32 %14, ptr %12, align 8, !tbaa !45
  br label %15

15:                                               ; preds = %7, %1
  br label %16

16:                                               ; preds = %32, %15
  %17 = load ptr, ptr %2, align 8, !tbaa !38
  %18 = getelementptr inbounds nuw %struct.PutBitContext, ptr %17, i32 0, i32 1
  %19 = load i32, ptr %18, align 4, !tbaa !44
  %20 = icmp slt i32 %19, 32
  br i1 %20, label %21, label %50

21:                                               ; preds = %16
  br label %22

22:                                               ; preds = %21
  %23 = load ptr, ptr %2, align 8, !tbaa !38
  %24 = getelementptr inbounds nuw %struct.PutBitContext, ptr %23, i32 0, i32 3
  %25 = load ptr, ptr %24, align 8, !tbaa !43
  %26 = load ptr, ptr %2, align 8, !tbaa !38
  %27 = getelementptr inbounds nuw %struct.PutBitContext, ptr %26, i32 0, i32 4
  %28 = load ptr, ptr %27, align 8, !tbaa !42
  %29 = icmp ult ptr %25, %28
  br i1 %29, label %31, label %30

30:                                               ; preds = %22
  call void (ptr, i32, ptr, ...) @av_log(ptr noundef null, i32 noundef 0, ptr noundef @.str.6, ptr noundef @.str.7, ptr noundef @.str.8, i32 noundef 150)
  call void @abort() #8
  unreachable

31:                                               ; preds = %22
  br label %32

32:                                               ; preds = %31
  %33 = load ptr, ptr %2, align 8, !tbaa !38
  %34 = getelementptr inbounds nuw %struct.PutBitContext, ptr %33, i32 0, i32 0
  %35 = load i32, ptr %34, align 8, !tbaa !45
  %36 = lshr i32 %35, 24
  %37 = trunc i32 %36 to i8
  %38 = load ptr, ptr %2, align 8, !tbaa !38
  %39 = getelementptr inbounds nuw %struct.PutBitContext, ptr %38, i32 0, i32 3
  %40 = load ptr, ptr %39, align 8, !tbaa !43
  %41 = getelementptr inbounds nuw i8, ptr %40, i32 1
  store ptr %41, ptr %39, align 8, !tbaa !43
  store i8 %37, ptr %40, align 1, !tbaa !16
  %42 = load ptr, ptr %2, align 8, !tbaa !38
  %43 = getelementptr inbounds nuw %struct.PutBitContext, ptr %42, i32 0, i32 0
  %44 = load i32, ptr %43, align 8, !tbaa !45
  %45 = shl i32 %44, 8
  store i32 %45, ptr %43, align 8, !tbaa !45
  %46 = load ptr, ptr %2, align 8, !tbaa !38
  %47 = getelementptr inbounds nuw %struct.PutBitContext, ptr %46, i32 0, i32 1
  %48 = load i32, ptr %47, align 4, !tbaa !44
  %49 = add nsw i32 %48, 8
  store i32 %49, ptr %47, align 4, !tbaa !44
  br label %16, !llvm.loop !46

50:                                               ; preds = %16
  %51 = load ptr, ptr %2, align 8, !tbaa !38
  %52 = getelementptr inbounds nuw %struct.PutBitContext, ptr %51, i32 0, i32 1
  store i32 32, ptr %52, align 4, !tbaa !44
  %53 = load ptr, ptr %2, align 8, !tbaa !38
  %54 = getelementptr inbounds nuw %struct.PutBitContext, ptr %53, i32 0, i32 0
  store i32 0, ptr %54, align 8, !tbaa !45
  ret void
}

; Function Attrs: nounwind uwtable
define internal void @put_bits32(ptr noundef %0, i32 noundef %1) #0 {
  %3 = alloca ptr, align 8
  %4 = alloca i32, align 4
  %5 = alloca i32, align 4
  %6 = alloca i32, align 4
  store ptr %0, ptr %3, align 8, !tbaa !38
  store i32 %1, ptr %4, align 4, !tbaa !20
  call void @llvm.lifetime.start.p0(i64 4, ptr %5) #6
  call void @llvm.lifetime.start.p0(i64 4, ptr %6) #6
  %7 = load ptr, ptr %3, align 8, !tbaa !38
  %8 = getelementptr inbounds nuw %struct.PutBitContext, ptr %7, i32 0, i32 0
  %9 = load i32, ptr %8, align 8, !tbaa !45
  store i32 %9, ptr %5, align 4, !tbaa !20
  %10 = load ptr, ptr %3, align 8, !tbaa !38
  %11 = getelementptr inbounds nuw %struct.PutBitContext, ptr %10, i32 0, i32 1
  %12 = load i32, ptr %11, align 4, !tbaa !44
  store i32 %12, ptr %6, align 4, !tbaa !20
  %13 = load i32, ptr %5, align 4, !tbaa !20
  %14 = zext i32 %13 to i64
  %15 = load i32, ptr %6, align 4, !tbaa !20
  %16 = zext i32 %15 to i64
  %17 = shl i64 %14, %16
  %18 = trunc i64 %17 to i32
  store i32 %18, ptr %5, align 4, !tbaa !20
  %19 = load i32, ptr %4, align 4, !tbaa !20
  %20 = load i32, ptr %6, align 4, !tbaa !20
  %21 = sub nsw i32 32, %20
  %22 = lshr i32 %19, %21
  %23 = load i32, ptr %5, align 4, !tbaa !20
  %24 = or i32 %23, %22
  store i32 %24, ptr %5, align 4, !tbaa !20
  %25 = load ptr, ptr %3, align 8, !tbaa !38
  %26 = getelementptr inbounds nuw %struct.PutBitContext, ptr %25, i32 0, i32 4
  %27 = load ptr, ptr %26, align 8, !tbaa !42
  %28 = load ptr, ptr %3, align 8, !tbaa !38
  %29 = getelementptr inbounds nuw %struct.PutBitContext, ptr %28, i32 0, i32 3
  %30 = load ptr, ptr %29, align 8, !tbaa !43
  %31 = ptrtoint ptr %27 to i64
  %32 = ptrtoint ptr %30 to i64
  %33 = sub i64 %31, %32
  %34 = icmp uge i64 %33, 4
  br i1 %34, label %35, label %45

35:                                               ; preds = %2
  %36 = load i32, ptr %5, align 4, !tbaa !20
  %37 = call i32 @av_bswap32(i32 noundef %36) #7
  %38 = load ptr, ptr %3, align 8, !tbaa !38
  %39 = getelementptr inbounds nuw %struct.PutBitContext, ptr %38, i32 0, i32 3
  %40 = load ptr, ptr %39, align 8, !tbaa !43
  store i32 %37, ptr %40, align 1, !tbaa !16
  %41 = load ptr, ptr %3, align 8, !tbaa !38
  %42 = getelementptr inbounds nuw %struct.PutBitContext, ptr %41, i32 0, i32 3
  %43 = load ptr, ptr %42, align 8, !tbaa !43
  %44 = getelementptr inbounds nuw i8, ptr %43, i64 4
  store ptr %44, ptr %42, align 8, !tbaa !43
  br label %46

45:                                               ; preds = %2
  call void (ptr, i32, ptr, ...) @av_log(ptr noundef null, i32 noundef 16, ptr noundef @.str.5)
  br label %46

46:                                               ; preds = %45, %35
  %47 = load i32, ptr %4, align 4, !tbaa !20
  store i32 %47, ptr %5, align 4, !tbaa !20
  %48 = load i32, ptr %5, align 4, !tbaa !20
  %49 = load ptr, ptr %3, align 8, !tbaa !38
  %50 = getelementptr inbounds nuw %struct.PutBitContext, ptr %49, i32 0, i32 0
  store i32 %48, ptr %50, align 8, !tbaa !45
  %51 = load i32, ptr %6, align 4, !tbaa !20
  %52 = load ptr, ptr %3, align 8, !tbaa !38
  %53 = getelementptr inbounds nuw %struct.PutBitContext, ptr %52, i32 0, i32 1
  store i32 %51, ptr %53, align 4, !tbaa !44
  call void @llvm.lifetime.end.p0(i64 4, ptr %6) #6
  call void @llvm.lifetime.end.p0(i64 4, ptr %5) #6
  ret void
}

; Function Attrs: inlinehint nounwind uwtable
define internal void @put_bits(ptr noundef %0, i32 noundef %1, i32 noundef %2) #3 {
  %4 = alloca ptr, align 8
  %5 = alloca i32, align 4
  %6 = alloca i32, align 4
  store ptr %0, ptr %4, align 8, !tbaa !38
  store i32 %1, ptr %5, align 4, !tbaa !20
  store i32 %2, ptr %6, align 4, !tbaa !20
  %7 = load ptr, ptr %4, align 8, !tbaa !38
  %8 = load i32, ptr %5, align 4, !tbaa !20
  %9 = load i32, ptr %6, align 4, !tbaa !20
  call void @put_bits_no_assert(ptr noundef %7, i32 noundef %8, i32 noundef %9)
  ret void
}

; Function Attrs: inlinehint nounwind uwtable
define internal void @init_put_bits(ptr noundef %0, ptr noundef %1, i32 noundef %2) #3 {
  %4 = alloca ptr, align 8
  %5 = alloca ptr, align 8
  %6 = alloca i32, align 4
  store ptr %0, ptr %4, align 8, !tbaa !38
  store ptr %1, ptr %5, align 8, !tbaa !10
  store i32 %2, ptr %6, align 4, !tbaa !20
  %7 = load i32, ptr %6, align 4, !tbaa !20
  %8 = icmp slt i32 %7, 0
  br i1 %8, label %9, label %10

9:                                                ; preds = %3
  store i32 0, ptr %6, align 4, !tbaa !20
  store ptr null, ptr %5, align 8, !tbaa !10
  br label %10

10:                                               ; preds = %9, %3
  %11 = load ptr, ptr %5, align 8, !tbaa !10
  %12 = load ptr, ptr %4, align 8, !tbaa !38
  %13 = getelementptr inbounds nuw %struct.PutBitContext, ptr %12, i32 0, i32 2
  store ptr %11, ptr %13, align 8, !tbaa !40
  %14 = load ptr, ptr %4, align 8, !tbaa !38
  %15 = getelementptr inbounds nuw %struct.PutBitContext, ptr %14, i32 0, i32 2
  %16 = load ptr, ptr %15, align 8, !tbaa !40
  %17 = load i32, ptr %6, align 4, !tbaa !20
  %18 = sext i32 %17 to i64
  %19 = getelementptr inbounds i8, ptr %16, i64 %18
  %20 = load ptr, ptr %4, align 8, !tbaa !38
  %21 = getelementptr inbounds nuw %struct.PutBitContext, ptr %20, i32 0, i32 4
  store ptr %19, ptr %21, align 8, !tbaa !42
  %22 = load ptr, ptr %4, align 8, !tbaa !38
  %23 = getelementptr inbounds nuw %struct.PutBitContext, ptr %22, i32 0, i32 2
  %24 = load ptr, ptr %23, align 8, !tbaa !40
  %25 = load ptr, ptr %4, align 8, !tbaa !38
  %26 = getelementptr inbounds nuw %struct.PutBitContext, ptr %25, i32 0, i32 3
  store ptr %24, ptr %26, align 8, !tbaa !43
  %27 = load ptr, ptr %4, align 8, !tbaa !38
  %28 = getelementptr inbounds nuw %struct.PutBitContext, ptr %27, i32 0, i32 1
  store i32 32, ptr %28, align 4, !tbaa !44
  %29 = load ptr, ptr %4, align 8, !tbaa !38
  %30 = getelementptr inbounds nuw %struct.PutBitContext, ptr %29, i32 0, i32 0
  store i32 0, ptr %30, align 8, !tbaa !45
  ret void
}

; Function Attrs: nounwind uwtable
define void @ff_isom_put_dvcc_dvvc(ptr noundef %0, ptr noundef %1, ptr noundef %2) #0 {
  %4 = alloca ptr, align 8
  %5 = alloca ptr, align 8
  %6 = alloca ptr, align 8
  %7 = alloca %struct.PutBitContext, align 8
  store ptr %0, ptr %4, align 8, !tbaa !4
  store ptr %1, ptr %5, align 8, !tbaa !10
  store ptr %2, ptr %6, align 8, !tbaa !14
  call void @llvm.lifetime.start.p0(i64 32, ptr %7) #6
  %8 = load ptr, ptr %5, align 8, !tbaa !10
  call void @init_put_bits(ptr noundef %7, ptr noundef %8, i32 noundef 24)
  %9 = load ptr, ptr %6, align 8, !tbaa !14
  %10 = getelementptr inbounds nuw %struct.AVDOVIDecoderConfigurationRecord, ptr %9, i32 0, i32 0
  %11 = load i8, ptr %10, align 1, !tbaa !17
  %12 = zext i8 %11 to i32
  call void @put_bits(ptr noundef %7, i32 noundef 8, i32 noundef %12)
  %13 = load ptr, ptr %6, align 8, !tbaa !14
  %14 = getelementptr inbounds nuw %struct.AVDOVIDecoderConfigurationRecord, ptr %13, i32 0, i32 1
  %15 = load i8, ptr %14, align 1, !tbaa !19
  %16 = zext i8 %15 to i32
  call void @put_bits(ptr noundef %7, i32 noundef 8, i32 noundef %16)
  %17 = load ptr, ptr %6, align 8, !tbaa !14
  %18 = getelementptr inbounds nuw %struct.AVDOVIDecoderConfigurationRecord, ptr %17, i32 0, i32 2
  %19 = load i8, ptr %18, align 1, !tbaa !22
  %20 = zext i8 %19 to i32
  %21 = and i32 %20, 127
  call void @put_bits(ptr noundef %7, i32 noundef 7, i32 noundef %21)
  %22 = load ptr, ptr %6, align 8, !tbaa !14
  %23 = getelementptr inbounds nuw %struct.AVDOVIDecoderConfigurationRecord, ptr %22, i32 0, i32 3
  %24 = load i8, ptr %23, align 1, !tbaa !23
  %25 = zext i8 %24 to i32
  %26 = and i32 %25, 63
  call void @put_bits(ptr noundef %7, i32 noundef 6, i32 noundef %26)
  %27 = load ptr, ptr %6, align 8, !tbaa !14
  %28 = getelementptr inbounds nuw %struct.AVDOVIDecoderConfigurationRecord, ptr %27, i32 0, i32 4
  %29 = load i8, ptr %28, align 1, !tbaa !24
  %30 = icmp ne i8 %29, 0
  %31 = xor i1 %30, true
  %32 = xor i1 %31, true
  %33 = zext i1 %32 to i32
  call void @put_bits(ptr noundef %7, i32 noundef 1, i32 noundef %33)
  %34 = load ptr, ptr %6, align 8, !tbaa !14
  %35 = getelementptr inbounds nuw %struct.AVDOVIDecoderConfigurationRecord, ptr %34, i32 0, i32 5
  %36 = load i8, ptr %35, align 1, !tbaa !25
  %37 = icmp ne i8 %36, 0
  %38 = xor i1 %37, true
  %39 = xor i1 %38, true
  %40 = zext i1 %39 to i32
  call void @put_bits(ptr noundef %7, i32 noundef 1, i32 noundef %40)
  %41 = load ptr, ptr %6, align 8, !tbaa !14
  %42 = getelementptr inbounds nuw %struct.AVDOVIDecoderConfigurationRecord, ptr %41, i32 0, i32 6
  %43 = load i8, ptr %42, align 1, !tbaa !26
  %44 = icmp ne i8 %43, 0
  %45 = xor i1 %44, true
  %46 = xor i1 %45, true
  %47 = zext i1 %46 to i32
  call void @put_bits(ptr noundef %7, i32 noundef 1, i32 noundef %47)
  %48 = load ptr, ptr %6, align 8, !tbaa !14
  %49 = getelementptr inbounds nuw %struct.AVDOVIDecoderConfigurationRecord, ptr %48, i32 0, i32 7
  %50 = load i8, ptr %49, align 1, !tbaa !27
  %51 = zext i8 %50 to i32
  %52 = and i32 %51, 15
  call void @put_bits(ptr noundef %7, i32 noundef 4, i32 noundef %52)
  %53 = load ptr, ptr %6, align 8, !tbaa !14
  %54 = getelementptr inbounds nuw %struct.AVDOVIDecoderConfigurationRecord, ptr %53, i32 0, i32 8
  %55 = load i8, ptr %54, align 1, !tbaa !28
  %56 = zext i8 %55 to i32
  %57 = and i32 %56, 3
  call void @put_bits(ptr noundef %7, i32 noundef 2, i32 noundef %57)
  call void @put_bits(ptr noundef %7, i32 noundef 26, i32 noundef 0)
  call void @put_bits32(ptr noundef %7, i32 noundef 0)
  call void @put_bits32(ptr noundef %7, i32 noundef 0)
  call void @put_bits32(ptr noundef %7, i32 noundef 0)
  call void @put_bits32(ptr noundef %7, i32 noundef 0)
  call void @flush_put_bits(ptr noundef %7)
  %58 = load ptr, ptr %4, align 8, !tbaa !4
  %59 = load ptr, ptr %6, align 8, !tbaa !14
  %60 = getelementptr inbounds nuw %struct.AVDOVIDecoderConfigurationRecord, ptr %59, i32 0, i32 2
  %61 = load i8, ptr %60, align 1, !tbaa !22
  %62 = zext i8 %61 to i32
  %63 = icmp sgt i32 %62, 10
  br i1 %63, label %64, label %65

64:                                               ; preds = %3
  br label %72

65:                                               ; preds = %3
  %66 = load ptr, ptr %6, align 8, !tbaa !14
  %67 = getelementptr inbounds nuw %struct.AVDOVIDecoderConfigurationRecord, ptr %66, i32 0, i32 2
  %68 = load i8, ptr %67, align 1, !tbaa !22
  %69 = zext i8 %68 to i32
  %70 = icmp sgt i32 %69, 7
  %71 = select i1 %70, ptr @.str.3, ptr @.str.4
  br label %72

72:                                               ; preds = %65, %64
  %73 = phi ptr [ @.str.2, %64 ], [ %71, %65 ]
  %74 = load ptr, ptr %6, align 8, !tbaa !14
  %75 = getelementptr inbounds nuw %struct.AVDOVIDecoderConfigurationRecord, ptr %74, i32 0, i32 0
  %76 = load i8, ptr %75, align 1, !tbaa !17
  %77 = zext i8 %76 to i32
  %78 = load ptr, ptr %6, align 8, !tbaa !14
  %79 = getelementptr inbounds nuw %struct.AVDOVIDecoderConfigurationRecord, ptr %78, i32 0, i32 1
  %80 = load i8, ptr %79, align 1, !tbaa !19
  %81 = zext i8 %80 to i32
  %82 = load ptr, ptr %6, align 8, !tbaa !14
  %83 = getelementptr inbounds nuw %struct.AVDOVIDecoderConfigurationRecord, ptr %82, i32 0, i32 2
  %84 = load i8, ptr %83, align 1, !tbaa !22
  %85 = zext i8 %84 to i32
  %86 = load ptr, ptr %6, align 8, !tbaa !14
  %87 = getelementptr inbounds nuw %struct.AVDOVIDecoderConfigurationRecord, ptr %86, i32 0, i32 3
  %88 = load i8, ptr %87, align 1, !tbaa !23
  %89 = zext i8 %88 to i32
  %90 = load ptr, ptr %6, align 8, !tbaa !14
  %91 = getelementptr inbounds nuw %struct.AVDOVIDecoderConfigurationRecord, ptr %90, i32 0, i32 4
  %92 = load i8, ptr %91, align 1, !tbaa !24
  %93 = zext i8 %92 to i32
  %94 = load ptr, ptr %6, align 8, !tbaa !14
  %95 = getelementptr inbounds nuw %struct.AVDOVIDecoderConfigurationRecord, ptr %94, i32 0, i32 5
  %96 = load i8, ptr %95, align 1, !tbaa !25
  %97 = zext i8 %96 to i32
  %98 = load ptr, ptr %6, align 8, !tbaa !14
  %99 = getelementptr inbounds nuw %struct.AVDOVIDecoderConfigurationRecord, ptr %98, i32 0, i32 6
  %100 = load i8, ptr %99, align 1, !tbaa !26
  %101 = zext i8 %100 to i32
  %102 = load ptr, ptr %6, align 8, !tbaa !14
  %103 = getelementptr inbounds nuw %struct.AVDOVIDecoderConfigurationRecord, ptr %102, i32 0, i32 7
  %104 = load i8, ptr %103, align 1, !tbaa !27
  %105 = zext i8 %104 to i32
  %106 = load ptr, ptr %6, align 8, !tbaa !14
  %107 = getelementptr inbounds nuw %struct.AVDOVIDecoderConfigurationRecord, ptr %106, i32 0, i32 8
  %108 = load i8, ptr %107, align 1, !tbaa !28
  %109 = zext i8 %108 to i32
  call void (ptr, i32, ptr, ...) @av_log(ptr noundef %58, i32 noundef 48, ptr noundef @.str.1, ptr noundef %73, i32 noundef %77, i32 noundef %81, i32 noundef %85, i32 noundef %89, i32 noundef %93, i32 noundef %97, i32 noundef %101, i32 noundef %105, i32 noundef %109)
  call void @llvm.lifetime.end.p0(i64 32, ptr %7) #6
  ret void
}