; Function Attrs: nounwind uwtable
define void @ff_isom_put_dvcc_dvvc(ptr noundef %0, ptr noundef writeonly captures(none) initializes((0, 16)) %1, ptr noundef readonly captures(none) %2) local_unnamed_addr #0 {
put_bits32.exit58:
  %3 = load i8, ptr %2, align 1, !tbaa !7
  %4 = zext i8 %3 to i32
  %5 = getelementptr inbounds nuw i8, ptr %2, i64 1
  %6 = load i8, ptr %5, align 1, !tbaa !9
  %7 = zext i8 %6 to i32
  %8 = getelementptr inbounds nuw i8, ptr %2, i64 2
  %9 = load i8, ptr %8, align 1, !tbaa !10
  %10 = and i8 %9, 127
  %11 = zext nneg i8 %10 to i32
  %12 = shl nuw nsw i32 %4, 15
  %13 = shl nuw nsw i32 %7, 7
  %14 = or disjoint i32 %12, %13
  %15 = or disjoint i32 %14, %11
  %16 = getelementptr inbounds nuw i8, ptr %2, i64 3
  %17 = load i8, ptr %16, align 1, !tbaa !11
  %18 = getelementptr inbounds nuw i8, ptr %2, i64 4
  %19 = load i8, ptr %18, align 1, !tbaa !12
  %20 = icmp ne i8 %19, 0
  %21 = zext i1 %20 to i32
  %22 = shl nuw nsw i32 %15, 7
  %23 = shl i8 %17, 1
  %24 = and i8 %23, 126
  %25 = zext nneg i8 %24 to i32
  %26 = or disjoint i32 %22, %25
  %27 = or disjoint i32 %26, %21
  %28 = getelementptr inbounds nuw i8, ptr %2, i64 5
  %29 = load i8, ptr %28, align 1, !tbaa !13
  %.not = icmp eq i8 %29, 0
  %30 = getelementptr inbounds nuw i8, ptr %2, i64 6
  %31 = load i8, ptr %30, align 1, !tbaa !14
  %32 = icmp ne i8 %31, 0
  %33 = zext i1 %32 to i32
  %34 = shl nuw i32 %27, 2
  %35 = select i1 %.not, i32 0, i32 2
  %36 = or disjoint i32 %34, %35
  %37 = or disjoint i32 %36, %33
  %38 = tail call i32 @llvm.bswap.i32(i32 %37)
  store i32 %38, ptr %1, align 1, !tbaa !4
  %39 = getelementptr inbounds nuw i8, ptr %2, i64 7
  %40 = getelementptr inbounds nuw i8, ptr %2, i64 8
  %41 = getelementptr inbounds nuw i8, ptr %1, i64 4
  %42 = load i8, ptr %40, align 1, !tbaa !16
  %43 = and i8 %42, 3
  %44 = zext nneg i8 %43 to i32
  %45 = load i8, ptr %39, align 1, !tbaa !15
  %46 = zext i8 %45 to i32
  %47 = shl i32 %46, 28
  %48 = shl nuw nsw i32 %44, 26
  %49 = or disjoint i32 %47, %48
  %50 = lshr exact i32 %49, 24
  store i32 %50, ptr %41, align 1, !tbaa !4
  %51 = getelementptr inbounds nuw i8, ptr %1, i64 8
  store i32 0, ptr %51, align 1, !tbaa !4
  %52 = getelementptr inbounds nuw i8, ptr %1, i64 12
  store i32 0, ptr %52, align 1, !tbaa !4
  %53 = getelementptr inbounds nuw i8, ptr %1, i64 16
  store i32 0, ptr %53, align 1, !tbaa !4
  %54 = getelementptr inbounds nuw i8, ptr %1, i64 20
  store i32 0, ptr %54, align 1, !tbaa !4
  %55 = load i8, ptr %8, align 1, !tbaa !10
  %56 = icmp ugt i8 %55, 10
  %57 = icmp ugt i8 %55, 7
  %58 = select i1 %57, ptr @.str.3, ptr @.str.4
  %59 = select i1 %56, ptr @.str.2, ptr %58
  %60 = load i8, ptr %2, align 1, !tbaa !7
  %61 = zext i8 %60 to i32
  %62 = load i8, ptr %5, align 1, !tbaa !9
  %63 = zext i8 %62 to i32
  %64 = zext i8 %55 to i32
  %65 = load i8, ptr %16, align 1, !tbaa !11
  %66 = zext i8 %65 to i32
  %67 = load i8, ptr %18, align 1, !tbaa !12
  %68 = zext i8 %67 to i32
  %69 = load i8, ptr %28, align 1, !tbaa !13
  %70 = zext i8 %69 to i32
  %71 = load i8, ptr %30, align 1, !tbaa !14
  %72 = zext i8 %71 to i32
  %73 = load i8, ptr %39, align 1, !tbaa !15
  %74 = zext i8 %73 to i32
  %75 = load i8, ptr %40, align 1, !tbaa !16
  %76 = zext i8 %75 to i32
  tail call void (ptr, i32, ptr, ...) @av_log(ptr noundef %0, i32 noundef 48, ptr noundef nonnull @.str.1, ptr noundef nonnull %59, i32 noundef %61, i32 noundef %63, i32 noundef %64, i32 noundef %66, i32 noundef %68, i32 noundef %70, i32 noundef %72, i32 noundef %74, i32 noundef %76) #4
  ret void
}